target datalayout = "e-m:e-p270:32:32-p271:32:32-p272:64:64-i64:64-i128:128-f80:128-n8:16:32:64-S128"
target triple = "x86_64-pc-linux-gnu"

%struct.GetBitContext = type { ptr, ptr, i32, i32, i32 }

; Function Attrs: inlinehint nounwind uwtable
define internal i32 @get_bits_count(ptr noundef %0) #2 {
  %2 = alloca ptr, align 8
  store ptr %0, ptr %2, align 8, !tbaa !68
  %3 = load ptr, ptr %2, align 8, !tbaa !68
  %4 = getelementptr inbounds nuw %struct.GetBitContext, ptr %3, i32 0, i32 2
  %5 = load i32, ptr %4, align 8, !tbaa !71
  ret i32 %5
}

; Function Attrs: inlinehint nounwind uwtable
define internal void @skip_bits(ptr noundef %0, i32 noundef %1) #2 {
  %3 = alloca ptr, align 8
  %4 = alloca i32, align 4
  %5 = alloca i32, align 4
  %6 = alloca i32, align 4
  store ptr %0, ptr %3, align 8, !tbaa !68
  store i32 %1, ptr %4, align 4, !tbaa !39
  call void @llvm.lifetime.start.p0(i64 4, ptr %5) #6
  %7 = load ptr, ptr %3, align 8, !tbaa !68
  %8 = getelementptr inbounds nuw %struct.GetBitContext, ptr %7, i32 0, i32 2
  %9 = load i32, ptr %8, align 8, !tbaa !71
  store i32 %9, ptr %5, align 4, !tbaa !39
  call void @llvm.lifetime.start.p0(i64 4, ptr %6) #6
  %10 = load ptr, ptr %3, align 8, !tbaa !68
  %11 = getelementptr inbounds nuw %struct.GetBitContext, ptr %10, i32 0, i32 4
  %12 = load i32, ptr %11, align 8, !tbaa !72
  store i32 %12, ptr %6, align 4, !tbaa !39
  %13 = load i32, ptr %6, align 4, !tbaa !39
  %14 = load i32, ptr %5, align 4, !tbaa !39
  %15 = load i32, ptr %4, align 4, !tbaa !39
  %16 = add i32 %14, %15
  %17 = icmp ugt i32 %13, %16
  br i1 %17, label %18, label %22

18:                                               ; preds = %2
  %19 = load i32, ptr %5, align 4, !tbaa !39
  %20 = load i32, ptr %4, align 4, !tbaa !39
  %21 = add i32 %19, %20
  br label %24

22:                                               ; preds = %2
  %23 = load i32, ptr %6, align 4, !tbaa !39
  br label %24

24:                                               ; preds = %22, %18
  %25 = phi i32 [ %21, %18 ], [ %23, %22 ]
  store i32 %25, ptr %5, align 4, !tbaa !39
  %26 = load i32, ptr %5, align 4, !tbaa !39
  %27 = load ptr, ptr %3, align 8, !tbaa !68
  %28 = getelementptr inbounds nuw %struct.GetBitContext, ptr %27, i32 0, i32 2
  store i32 %26, ptr %28, align 8, !tbaa !71
  call void @llvm.lifetime.end.p0(i64 4, ptr %6) #6
  call void @llvm.lifetime.end.p0(i64 4, ptr %5) #6
  ret void
}

; Function Attrs: inlinehint nounwind uwtable
define internal i32 @get_bits1(ptr noundef %0) #2 {
  %2 = alloca ptr, align 8
  %3 = alloca i32, align 4
  %4 = alloca i8, align 1
  store ptr %0, ptr %2, align 8, !tbaa !68
  call void @llvm.lifetime.start.p0(i64 4, ptr %3) #6
  %5 = load ptr, ptr %2, align 8, !tbaa !68
  %6 = getelementptr inbounds nuw %struct.GetBitContext, ptr %5, i32 0, i32 2
  %7 = load i32, ptr %6, align 8, !tbaa !71
  store i32 %7, ptr %3, align 4, !tbaa !39
  call void @llvm.lifetime.start.p0(i64 1, ptr %4) #6
  %8 = load ptr, ptr %2, align 8, !tbaa !68
  %9 = getelementptr inbounds nuw %struct.GetBitContext, ptr %8, i32 0, i32 0
  %10 = load ptr, ptr %9, align 8, !tbaa !73
  %11 = load i32, ptr %3, align 4, !tbaa !39
  %12 = lshr i32 %11, 3
  %13 = zext i32 %12 to i64
  %14 = getelementptr inbounds nuw i8, ptr %10, i64 %13
  %15 = load i8, ptr %14, align 1, !tbaa !74
  store i8 %15, ptr %4, align 1, !tbaa !74
  %16 = load i32, ptr %3, align 4, !tbaa !39
  %17 = and i32 %16, 7
  %18 = load i8, ptr %4, align 1, !tbaa !74
  %19 = zext i8 %18 to i32
  %20 = shl i32 %19, %17
  %21 = trunc i32 %20 to i8
  store i8 %21, ptr %4, align 1, !tbaa !74
  %22 = load i8, ptr %4, align 1, !tbaa !74
  %23 = zext i8 %22 to i32
  %24 = ashr i32 %23, 7
  %25 = trunc i32 %24 to i8
  store i8 %25, ptr %4, align 1, !tbaa !74
  %26 = load ptr, ptr %2, align 8, !tbaa !68
  %27 = getelementptr inbounds nuw %struct.GetBitContext, ptr %26, i32 0, i32 2
  %28 = load i32, ptr %27, align 8, !tbaa !71
  %29 = load ptr, ptr %2, align 8, !tbaa !68
  %30 = getelementptr inbounds nuw %struct.GetBitContext, ptr %29, i32 0, i32 4
  %31 = load i32, ptr %30, align 8, !tbaa !72
  %32 = icmp slt i32 %28, %31
  br i1 %32, label %33, label %36

33:                                               ; preds = %1
  %34 = load i32, ptr %3, align 4, !tbaa !39
  %35 = add i32 %34, 1
  store i32 %35, ptr %3, align 4, !tbaa !39
  br label %36

36:                                               ; preds = %33, %1
  %37 = load i32, ptr %3, align 4, !tbaa !39
  %38 = load ptr, ptr %2, align 8, !tbaa !68
  %39 = getelementptr inbounds nuw %struct.GetBitContext, ptr %38, i32 0, i32 2
  store i32 %37, ptr %39, align 8, !tbaa !71
  %40 = load i8, ptr %4, align 1, !tbaa !74
  %41 = zext i8 %40 to i32
  call void @llvm.lifetime.end.p0(i64 1, ptr %4) #6
  call void @llvm.lifetime.end.p0(i64 4, ptr %3) #6
  ret i32 %41
}

; Function Attrs: inlinehint nounwind uwtable
define internal i32 @get_bits_left(ptr noundef %0) #2 {
  %2 = alloca ptr, align 8
  store ptr %0, ptr %2, align 8, !tbaa !68
  %3 = load ptr, ptr %2, align 8, !tbaa !68
  %4 = getelementptr inbounds nuw %struct.GetBitContext, ptr %3, i32 0, i32 3
  %5 = load i32, ptr %4, align 4, !tbaa !70
  %6 = load ptr, ptr %2, align 8, !tbaa !68
  %7 = call i32 @get_bits_count(ptr noundef %6)
  %8 = sub nsw i32 %5, %7
  ret i32 %8
}

; Function Attrs: inlinehint nounwind uwtable
define internal i32 @skip_1stop_8data_bits(ptr noundef %0) #2 {
  %2 = alloca i32, align 4
  %3 = alloca ptr, align 8
  store ptr %0, ptr %3, align 8, !tbaa !68
  %4 = load ptr, ptr %3, align 8, !tbaa !68
  %5 = call i32 @get_bits_left(ptr noundef %4)
  %6 = icmp sle i32 %5, 0
  br i1 %6, label %7, label %8

7:                                                ; preds = %1
  store i32 -1094995529, ptr %2, align 4
  br label %21

8:                                                ; preds = %1
  br label %9

9:                                                ; preds = %19, %8
  %10 = load ptr, ptr %3, align 8, !tbaa !68
  %11 = call i32 @get_bits1(ptr noundef %10)
  %12 = icmp ne i32 %11, 0
  br i1 %12, label %13, label %20

13:                                               ; preds = %9
  %14 = load ptr, ptr %3, align 8, !tbaa !68
  call void @skip_bits(ptr noundef %14, i32 noundef 8)
  %15 = load ptr, ptr %3, align 8, !tbaa !68
  %16 = call i32 @get_bits_left(ptr noundef %15)
  %17 = icmp sle i32 %16, 0
  br i1 %17, label %18, label %19

18:                                               ; preds = %13
  store i32 -1094995529, ptr %2, align 4
  br label %21

19:                                               ; preds = %13
  br label %9, !llvm.loop !77

20:                                               ; preds = %9
  store i32 0, ptr %2, align 4
  br label %21

21:                                               ; preds = %20, %18, %7
  %22 = load i32, ptr %2, align 4
  ret i32 %22
}