; Function Attrs: inlinehint nofree norecurse nosync nounwind memory(read, argmem: readwrite, inaccessiblemem: none) uwtable
define internal fastcc range(i32 -1094995529, 1) i32 @skip_1stop_8data_bits(ptr noundef captures(none) %0) unnamed_addr #3 {
  %2 = getelementptr i8, ptr %0, i64 16
  %.val5 = load i32, ptr %2, align 8, !tbaa !4
  %3 = getelementptr i8, ptr %0, i64 20
  %.val6 = load i32, ptr %3, align 4, !tbaa !11
  %.not7 = icmp sgt i32 %.val6, %.val5
  br i1 %.not7, label %.preheader, label %.loopexit

.preheader:                                       ; preds = %1
  %4 = load ptr, ptr %0, align 8, !tbaa !13
  %5 = getelementptr inbounds nuw i8, ptr %0, i64 24
  %6 = load i32, ptr %5, align 8, !tbaa !12
  br label %7

7:                                                ; preds = %.preheader, %19
  %8 = phi i32 [ %.val5, %.preheader ], [ %21, %19 ]
  %9 = lshr i32 %8, 3
  %10 = zext nneg i32 %9 to i64
  %11 = getelementptr inbounds nuw i8, ptr %4, i64 %10
  %12 = load i8, ptr %11, align 1, !tbaa !14
  %13 = icmp slt i32 %8, %6
  %14 = zext i1 %13 to i32
  %spec.select.i = add nsw i32 %8, %14
  %15 = zext i8 %12 to i32
  %16 = and i32 %8, 7
  store i32 %spec.select.i, ptr %2, align 8, !tbaa !4
  %17 = lshr exact i32 128, %16
  %18 = and i32 %17, %15
  %.not = icmp eq i32 %18, 0
  br i1 %.not, label %.loopexit, label %19

19:                                               ; preds = %7
  %20 = add i32 %spec.select.i, 8
  %21 = tail call i32 @llvm.umin.i32(i32 %6, i32 %20)
  store i32 %21, ptr %2, align 8, !tbaa !4
  %.not8 = icmp sgt i32 %.val6, %21
  br i1 %.not8, label %7, label %.loopexit, !llvm.loop !69

.loopexit:                                        ; preds = %7, %19, %1
  %.0 = phi i32 [ -1094995529, %1 ], [ 0, %7 ], [ -1094995529, %19 ]
  ret i32 %.0
}